; Function Attrs: mustprogress nofree norecurse nosync nounwind willreturn memory(argmem: write) uwtable
define hidden void @timelib_unixtime2gmt(ptr noundef writeonly captures(none) initializes((0, 48), (56, 60), (80, 84), (192, 200), (220, 232)) %0, i64 noundef %1) local_unnamed_addr #2 {
  %3 = getelementptr inbounds nuw i8, ptr %0, i64 8
  %4 = getelementptr inbounds nuw i8, ptr %0, i64 16
  %5 = sdiv i64 %1, 86400
  %6 = add nsw i64 %5, 719468
  %7 = srem i64 %1, 86400
  %.lobit.i = ashr i64 %7, 63
  %8 = add nsw i64 %6, %.lobit.i
  %9 = add nsw i64 %8, -146096
  %10 = icmp slt i64 %8, 0
  %11 = select i1 %10, i64 %9, i64 %8
  %12 = sdiv i64 %11, 146097
  %.neg.i = mul nsw i64 %12, -146097
  %13 = add nsw i64 %.neg.i, %8
  %14 = udiv i64 %13, 1460
  %15 = udiv i64 %13, 36524
  %16 = udiv i64 %13, 146096
  %.neg28 = add nsw i64 %15, %13
  %17 = add nuw nsw i64 %14, %16
  %18 = sub nsw i64 %.neg28, %17
  %19 = udiv i64 %18, 365
  %20 = mul nsw i64 %12, 400
  %21 = add nsw i64 %19, %20
  %22 = udiv i64 %18, 1460
  %23 = udiv i64 %18, 36500
  %.neg35.i = mul i64 %19, -365
  %.neg36.i = sub nsw i64 %13, %22
  %.neg28.i = add nsw i64 %.neg36.i, %23
  %24 = add i64 %.neg28.i, %.neg35.i
  %25 = mul i64 %24, 5
  %26 = add i64 %25, 2
  %27 = udiv i64 %26, 153
  %28 = mul nuw i64 %27, 153
  %29 = add nuw i64 %28, 2
  %30 = udiv i64 %29, 5
  %31 = add i64 %24, 1
  %32 = sub i64 %31, %30
  store i64 %32, ptr %4, align 8, !tbaa !4
  %33 = icmp ult i64 %26, 1530
  %34 = select i1 %33, i64 3, i64 -9
  %35 = add nsw i64 %34, %27
  store i64 %35, ptr %3, align 8, !tbaa !4
  %36 = icmp slt i64 %35, 3
  %37 = zext i1 %36 to i64
  %38 = add nsw i64 %21, %37
  store i64 %38, ptr %0, align 8, !tbaa !4
  %isneg = icmp slt i64 %7, 0
  %39 = select i1 %isneg, i64 86400, i64 0
  %40 = add nsw i64 %39, %7
  %.lhs.trunc = trunc nsw i64 %40 to i32
  %41 = udiv i32 %.lhs.trunc, 3600
  %.zext = zext nneg i32 %41 to i64
  %.neg = mul nuw nsw i64 %.zext, 4294963696
  %42 = add nuw nsw i64 %.neg, %40
  %.lhs.trunc23 = trunc i64 %42 to i32
  %43 = sdiv i32 %.lhs.trunc23, 60
  %.sext = sext i32 %43 to i64
  %44 = urem i32 %.lhs.trunc, 60
  %.zext25 = zext nneg i32 %44 to i64
  %45 = getelementptr inbounds nuw i8, ptr %0, i64 24
  store i64 %.zext, ptr %45, align 8, !tbaa !8
  %46 = getelementptr inbounds nuw i8, ptr %0, i64 32
  store i64 %.sext, ptr %46, align 8, !tbaa !16
  %47 = getelementptr inbounds nuw i8, ptr %0, i64 40
  store i64 %.zext25, ptr %47, align 8, !tbaa !17
  %48 = getelementptr inbounds nuw i8, ptr %0, i64 56
  store i32 0, ptr %48, align 8, !tbaa !18
  %49 = getelementptr inbounds nuw i8, ptr %0, i64 80
  store i32 0, ptr %49, align 8, !tbaa !19
  %50 = getelementptr inbounds nuw i8, ptr %0, i64 192
  store i64 %1, ptr %50, align 8, !tbaa !20
  %51 = getelementptr inbounds nuw i8, ptr %0, i64 220
  store i32 1, ptr %51, align 4, !tbaa !21
  %52 = getelementptr inbounds nuw i8, ptr %0, i64 224
  store i32 1, ptr %52, align 8, !tbaa !22
  %53 = getelementptr inbounds nuw i8, ptr %0, i64 228
  store i32 0, ptr %53, align 4, !tbaa !23
  ret void
}